target datalayout = "e-m:e-p270:32:32-p271:32:32-p272:64:64-i64:64-i128:128-f80:128-n8:16:32:64-S128"
target triple = "x86_64-pc-linux-gnu"

%struct.AVProbeData = type { ptr, ptr, i32, ptr }

@ff_w64_guid_riff = external constant [16 x i8], align 16
@ff_w64_guid_wave = external constant [16 x i8], align 16

; Function Attrs: nounwind uwtable
define internal i32 @w64_probe(ptr noundef %0) #0 {
  %2 = alloca i32, align 4
  %3 = alloca ptr, align 8
  store ptr %0, ptr %3, align 8, !tbaa !4
  %4 = load ptr, ptr %3, align 8, !tbaa !4
  %5 = getelementptr inbounds nuw %struct.AVProbeData, ptr %4, i32 0, i32 2
  %6 = load i32, ptr %5, align 8, !tbaa !9
  %7 = icmp sle i32 %6, 40
  br i1 %7, label %8, label %9

8:                                                ; preds = %1
  store i32 0, ptr %2, align 4
  br label %24

9:                                                ; preds = %1
  %10 = load ptr, ptr %3, align 8, !tbaa !4
  %11 = getelementptr inbounds nuw %struct.AVProbeData, ptr %10, i32 0, i32 1
  %12 = load ptr, ptr %11, align 8, !tbaa !13
  %13 = call i32 @memcmp(ptr noundef %12, ptr noundef @ff_w64_guid_riff, i64 noundef 16) #11
  %14 = icmp ne i32 %13, 0
  br i1 %14, label %23, label %15

15:                                               ; preds = %9
  %16 = load ptr, ptr %3, align 8, !tbaa !4
  %17 = getelementptr inbounds nuw %struct.AVProbeData, ptr %16, i32 0, i32 1
  %18 = load ptr, ptr %17, align 8, !tbaa !13
  %19 = getelementptr inbounds i8, ptr %18, i64 24
  %20 = call i32 @memcmp(ptr noundef %19, ptr noundef @ff_w64_guid_wave, i64 noundef 16) #11
  %21 = icmp ne i32 %20, 0
  br i1 %21, label %23, label %22

22:                                               ; preds = %15
  store i32 100, ptr %2, align 4
  br label %24

23:                                               ; preds = %15, %9
  store i32 0, ptr %2, align 4
  br label %24

24:                                               ; preds = %23, %22, %8
  %25 = load i32, ptr %2, align 4
  ret i32 %25
}