; Function Attrs: mustprogress nofree norecurse nounwind willreturn memory(read, inaccessiblemem: none) uwtable
define internal range(i32 0, 101) i32 @w64_probe(ptr noundef readonly captures(none) %0) #0 {
  %2 = getelementptr inbounds nuw i8, ptr %0, i64 16
  %3 = load i32, ptr %2, align 8, !tbaa !4
  %4 = icmp slt i32 %3, 41
  br i1 %4, label %11, label %5

5:                                                ; preds = %1
  %6 = getelementptr inbounds nuw i8, ptr %0, i64 8
  %7 = load ptr, ptr %6, align 8, !tbaa !11
  %bcmp = tail call i32 @bcmp(ptr noundef nonnull dereferenceable(16) %7, ptr noundef nonnull dereferenceable(16) @ff_w64_guid_riff, i64 16)
  %.not = icmp eq i32 %bcmp, 0
  br i1 %.not, label %8, label %10

8:                                                ; preds = %5
  %9 = getelementptr inbounds nuw i8, ptr %7, i64 24
  %bcmp3 = tail call i32 @bcmp(ptr noundef nonnull dereferenceable(16) %9, ptr noundef nonnull dereferenceable(16) @ff_w64_guid_wave, i64 16)
  %.not4 = icmp eq i32 %bcmp3, 0
  br i1 %.not4, label %11, label %10

10:                                               ; preds = %8, %5
  br label %11

11:                                               ; preds = %8, %1, %10
  %.0 = phi i32 [ 0, %10 ], [ 0, %1 ], [ 100, %8 ]
  ret i32 %.0
}